target datalayout = "e-m:e-p270:32:32-p271:32:32-p272:64:64-i64:64-i128:128-f80:128-n8:16:32:64-S128"
target triple = "x86_64-pc-linux-gnu"

@_ZL12_klass_queue = internal global ptr null, align 8
@_ZL20_sampler_klass_queue = internal global ptr null, align 8

; Function Attrs: mustprogress nounwind uwtable
define linkonce_odr hidden noundef i32 @_ZN21CountLeadingZerosImplImLm8EE4doitEm(i64 noundef %0) #1 comdat align 2 {
  %2 = alloca i64, align 8
  store i64 %0, ptr %2, align 8
  %3 = load i64, ptr %2, align 8
  %4 = call i64 @llvm.ctlz.i64(i64 %3, i1 true)
  %5 = trunc i64 %4 to i32
  ret i32 %5
}

; Function Attrs: mustprogress nounwind uwtable
define linkonce_odr hidden noundef i32 @_Z19count_leading_zerosImEjT_(i64 noundef %0) #1 comdat {
  %2 = alloca i64, align 8
  store i64 %0, ptr %2, align 8
  %3 = load i64, ptr %2, align 8
  %4 = call noundef i32 @_ZN21CountLeadingZerosImplImLm8EE4doitEm(i64 noundef %3)
  ret i32 %4
}

; Function Attrs: mustprogress nounwind uwtable
define linkonce_odr hidden noundef i32 @_Z5log2iImTnNSt9enable_ifIXcvbsr3std11is_integralIT_EE5valueEiE4typeELi0EEiS1_(i64 noundef %0) #1 comdat {
  %2 = alloca i64, align 8
  %3 = alloca i32, align 4
  store i64 %0, ptr %2, align 8
  store i32 64, ptr %3, align 4
  %4 = load i64, ptr %2, align 8
  %5 = call noundef i32 @_Z19count_leading_zerosImEjT_(i64 noundef %4)
  %6 = sub i32 64, %5
  %7 = sub i32 %6, 1
  ret i32 %7
}

; Function Attrs: mustprogress nounwind uwtable
define linkonce_odr hidden noundef zeroext i1 @_Z13is_power_of_2ImTnNSt9enable_ifIXcvbsr3std11is_integralIT_EE5valueEiE4typeELi0EEbS1_(i64 noundef %0) #1 comdat {
  %2 = alloca i64, align 8
  store i64 %0, ptr %2, align 8
  %3 = load i64, ptr %2, align 8
  %4 = icmp ugt i64 %3, 0
  br i1 %4, label %5, label %11

5:                                                ; preds = %1
  %6 = load i64, ptr %2, align 8
  %7 = load i64, ptr %2, align 8
  %8 = sub i64 %7, 1
  %9 = and i64 %6, %8
  %10 = icmp eq i64 %9, 0
  br label %11

11:                                               ; preds = %5, %1
  %12 = phi i1 [ false, %1 ], [ %10, %5 ]
  ret i1 %12
}

; Function Attrs: mustprogress nounwind uwtable
define linkonce_odr hidden noundef i64 @_Z4MAX2ImET_S0_S0_(i64 noundef %0, i64 noundef %1) #1 comdat {
  %3 = alloca i64, align 8
  %4 = alloca i64, align 8
  store i64 %0, ptr %3, align 8
  store i64 %1, ptr %4, align 8
  %5 = load i64, ptr %3, align 8
  %6 = load i64, ptr %4, align 8
  %7 = icmp ugt i64 %5, %6
  br i1 %7, label %8, label %10

8:                                                ; preds = %2
  %9 = load i64, ptr %3, align 8
  br label %12

10:                                               ; preds = %2
  %11 = load i64, ptr %4, align 8
  br label %12

12:                                               ; preds = %10, %8
  %13 = phi i64 [ %9, %8 ], [ %11, %10 ]
  ret i64 %13
}

; Function Attrs: mustprogress nounwind uwtable
define linkonce_odr hidden noundef i64 @_Z19round_up_power_of_2ImTnNSt9enable_ifIXcvbsr3std11is_integralIT_EE5valueEiE4typeELi0EES1_S1_(i64 noundef %0) #1 comdat {
  %2 = alloca i64, align 8
  %3 = alloca i64, align 8
  store i64 %0, ptr %3, align 8
  %4 = load i64, ptr %3, align 8
  %5 = call noundef zeroext i1 @_Z13is_power_of_2ImTnNSt9enable_ifIXcvbsr3std11is_integralIT_EE5valueEiE4typeELi0EEbS1_(i64 noundef %4)
  br i1 %5, label %6, label %8

6:                                                ; preds = %1
  %7 = load i64, ptr %3, align 8
  store i64 %7, ptr %2, align 8
  br label %14

8:                                                ; preds = %1
  %9 = load i64, ptr %3, align 8
  %10 = call noundef i32 @_Z5log2iImTnNSt9enable_ifIXcvbsr3std11is_integralIT_EE5valueEiE4typeELi0EEiS1_(i64 noundef %9)
  %11 = add nsw i32 %10, 1
  %12 = zext i32 %11 to i64
  %13 = shl i64 1, %12
  store i64 %13, ptr %2, align 8
  br label %14

14:                                               ; preds = %8, %6
  %15 = load i64, ptr %2, align 8
  ret i64 %15
}

; Function Attrs: mustprogress nounwind uwtable
define internal noundef i64 @_ZL26derive_sampler_buffer_sizev() #1 {
  %1 = alloca i64, align 8
  %2 = call noundef i32 @_ZN12JfrOptionSet10stackdepthEv()
  %3 = mul i32 %2, 2
  %4 = mul i32 %3, 8
  %5 = zext i32 %4 to i64
  store i64 %5, ptr %1, align 8
  %6 = load i64, ptr %1, align 8
  %7 = mul i64 %6, 2
  %8 = call noundef i64 @_Z19round_up_power_of_2ImTnNSt9enable_ifIXcvbsr3std11is_integralIT_EE5valueEiE4typeELi0EES1_S1_(i64 noundef %7)
  store i64 %8, ptr %1, align 8
  %9 = load i64, ptr %1, align 8
  %10 = call noundef i64 @_Z4MAX2ImET_S0_S0_(i64 noundef %9, i64 noundef 1024)
  ret i64 %10
}

; Function Attrs: mustprogress nounwind uwtable
define hidden noundef zeroext i1 @_ZN21JfrTraceIdLoadBarrier10initializeEv() #1 align 2 {
  %1 = alloca i1, align 1
  %2 = alloca i64, align 8
  %3 = call noundef ptr @_ZN11JfrCHeapObjnwEm(i64 noundef 8) #5
  %4 = icmp eq ptr %3, null
  br i1 %4, label %6, label %5

5:                                                ; preds = %0
  call void @_ZN20JfrTraceIdKlassQueueC1Ev(ptr noundef nonnull align 8 dereferenceable(8) %3)
  br label %6

6:                                                ; preds = %5, %0
  %7 = phi ptr [ %3, %5 ], [ null, %0 ]
  store ptr %7, ptr @_ZL12_klass_queue, align 8
  %8 = load ptr, ptr @_ZL12_klass_queue, align 8
  %9 = icmp eq ptr %8, null
  br i1 %9, label %13, label %10

10:                                               ; preds = %6
  %11 = load ptr, ptr @_ZL12_klass_queue, align 8
  %12 = call noundef zeroext i1 @_ZN20JfrTraceIdKlassQueue10initializeEmmm(ptr noundef nonnull align 8 dereferenceable(8) %11, i64 noundef 1024, i64 noundef -1, i64 noundef 32)
  br i1 %12, label %14, label %13

13:                                               ; preds = %10, %6
  store i1 false, ptr %1, align 1
  br label %29

14:                                               ; preds = %10
  %15 = call noundef i64 @_ZL26derive_sampler_buffer_sizev()
  store i64 %15, ptr %2, align 8
  %16 = call noundef ptr @_ZN11JfrCHeapObjnwEm(i64 noundef 8) #5
  %17 = icmp eq ptr %16, null
  br i1 %17, label %19, label %18

18:                                               ; preds = %14
  call void @_ZN20JfrTraceIdKlassQueueC1Ev(ptr noundef nonnull align 8 dereferenceable(8) %16)
  br label %19

19:                                               ; preds = %18, %14
  %20 = phi ptr [ %16, %18 ], [ null, %14 ]
  store ptr %20, ptr @_ZL20_sampler_klass_queue, align 8
  %21 = load ptr, ptr @_ZL20_sampler_klass_queue, align 8
  %22 = icmp ne ptr %21, null
  br i1 %22, label %23, label %27

23:                                               ; preds = %19
  %24 = load ptr, ptr @_ZL20_sampler_klass_queue, align 8
  %25 = load i64, ptr %2, align 8
  %26 = call noundef zeroext i1 @_ZN20JfrTraceIdKlassQueue10initializeEmmm(ptr noundef nonnull align 8 dereferenceable(8) %24, i64 noundef %25, i64 noundef -1, i64 noundef 2)
  br label %27

27:                                               ; preds = %23, %19
  %28 = phi i1 [ false, %19 ], [ %26, %23 ]
  store i1 %28, ptr %1, align 1
  br label %29

29:                                               ; preds = %27, %13
  %30 = load i1, ptr %1, align 1
  ret i1 %30
}