; Function Attrs: mustprogress nounwind uwtable
define hidden noundef zeroext i1 @_ZN21JfrTraceIdLoadBarrier10initializeEv() local_unnamed_addr #0 align 2 {
  %1 = tail call noundef ptr @_ZN11JfrCHeapObjnwEm(i64 noundef 8) #6
  %2 = icmp eq ptr %1, null
  br i1 %2, label %.thread, label %3

.thread:                                          ; preds = %0
  store ptr null, ptr @_ZL12_klass_queue, align 8
  br label %19

3:                                                ; preds = %0
  tail call void @_ZN20JfrTraceIdKlassQueueC1Ev(ptr noundef nonnull align 8 dereferenceable(8) %1) #6
  store ptr %1, ptr @_ZL12_klass_queue, align 8
  %4 = tail call noundef zeroext i1 @_ZN20JfrTraceIdKlassQueue10initializeEmmm(ptr noundef nonnull align 8 dereferenceable(8) %1, i64 noundef 1024, i64 noundef -1, i64 noundef 32) #6
  br i1 %4, label %5, label %19

5:                                                ; preds = %3
  %6 = tail call noundef i32 @_ZN12JfrOptionSet10stackdepthEv() #6
  %7 = tail call noundef ptr @_ZN11JfrCHeapObjnwEm(i64 noundef 8) #6
  %8 = icmp eq ptr %7, null
  br i1 %8, label %.thread5, label %9

.thread5:                                         ; preds = %5
  store ptr null, ptr @_ZL20_sampler_klass_queue, align 8
  br label %19

9:                                                ; preds = %5
  %10 = shl i32 %6, 4
  %11 = zext i32 %10 to i64
  %12 = shl nuw nsw i64 %11, 1
  %13 = tail call range(i64 0, 65) i64 @llvm.ctpop.i64(i64 %12)
  %or.cond.i.i = icmp eq i64 %13, 1
  %14 = tail call range(i64 0, 65) i64 @llvm.ctlz.i64(i64 %12, i1 true)
  %15 = sub nuw nsw i64 64, %14
  %16 = shl nuw nsw i64 1, %15
  %.0.i.i = select i1 %or.cond.i.i, i64 %12, i64 %16
  %17 = tail call noundef i64 @llvm.umax.i64(i64 %.0.i.i, i64 1024)
  tail call void @_ZN20JfrTraceIdKlassQueueC1Ev(ptr noundef nonnull align 8 dereferenceable(8) %7) #6
  store ptr %7, ptr @_ZL20_sampler_klass_queue, align 8
  %18 = tail call noundef zeroext i1 @_ZN20JfrTraceIdKlassQueue10initializeEmmm(ptr noundef nonnull align 8 dereferenceable(8) %7, i64 noundef %17, i64 noundef -1, i64 noundef 2) #6
  br label %19

19:                                               ; preds = %.thread5, %.thread, %9, %3
  %.0 = phi i1 [ false, %3 ], [ %18, %9 ], [ false, %.thread ], [ false, %.thread5 ]
  ret i1 %.0
}